Certificate:
    Data:
        Version: 3 (0x2)
        Serial Number: 1 (0x1)
    Signature Algorithm: sha256WithRSAEncryption
        Issuer: C=US, ST=Maryland, L=Baltimore, O=Test CA, Limited, OU=Server Research Department, CN=rayfed/emailAddress=test@example.com
        Validity
            Not Before: Nov 16 03:32:34 2022 GMT
            Not After : Nov 16 03:32:34 2023 GMT
        Subject: C=US, ST=MD, L=Baltimore, O=Test Server, Limited, CN=rayfed
        Subject Public Key Info:
            Public Key Algorithm: rsaEncryption
                Public-Key: (2048 bit)
                Modulus:
                    00:c5:b8:7b:66:a7:f0:ef:38:d7:5e:c7:75:70:e3:
                    d5:6e:13:b1:dc:d7:ac:a3:0d:64:a6:44:8f:75:f2:
                    ec:f6:9e:a8:54:7f:09:c2:39:63:e0:9d:21:85:81:
                    9d:14:ce:f0:f3:46:e9:b9:71:dd:7b:a2:33:e2:45:
                    4d:bc:b7:65:ab:91:0a:bd:40:1b:0c:5c:53:8e:8e:
                    68:3c:c2:bd:50:ea:9f:20:28:66:00:bb:19:f1:5e:
                    04:92:19:2f:e6:b7:12:59:8b:f6:cf:01:24:ce:4c:
                    4a:3a:f3:e2:fb:fb:0b:cd:93:51:12:8f:b6:2e:52:
                    e1:d7:15:f7:d9:61:bf:dd:93:8c:65:01:02:c5:14:
                    14:1d:70:b3:a1:71:83:69:54:ce:ad:dd:ba:47:41:
                    76:ec:b7:41:cd:22:0a:63:74:cf:ac:b7:41:b4:0a:
                    1e:1f:54:ca:e9:81:ad:11:a0:2d:7b:b5:46:3c:91:
                    60:60:ab:67:96:7c:4c:e1:03:8f:4e:75:83:91:8d:
                    2b:a5:a5:16:0a:4f:ee:69:5d:3f:2f:b1:81:76:81:
                    1b:2d:f3:4f:18:2e:c4:14:33:ce:6f:73:1f:22:fd:
                    d1:d1:e2:86:04:3c:c4:91:8d:0f:ef:10:8e:18:c4:
                    d5:ee:26:07:86:49:db:b5:37:c6:7f:a6:47:24:8d:
                    71:41
                Exponent: 65537 (0x10001)
        X509v3 extensions:
            X509v3 Subject Key Identifier:
                0F:38:65:4F:B1:F0:BC:16:01:63:10:43:BE:56:79:F9:53:98:49:36
            X509v3 Authority Key Identifier:
                keyid:A5:1C:85:7E:16:B8:36:B5:E9:18:CD:83:BA:13:C6:8E:0A:12:F5:7E

            X509v3 Basic Constraints:
                CA:FALSE
            X509v3 Key Usage:
                Digital Signature, Key Encipherment
            X509v3 Subject Alternative Name:
                DNS:127.0.0.1, DNS:localhost, DNS:30.47.19.97, DNS:ftp.example.com, IP Address:127.0.0.1, IP Address:0:0:0:0:0:0:0:1
            Netscape Comment:
                OpenSSL Generated Certificate
    Signature Algorithm: sha256WithRSAEncryption
         2a:45:85:a5:bd:58:01:d7:2b:c7:50:7d:95:bd:a7:bc:cb:ff:
         14:ac:a7:f0:fc:4c:d5:26:69:99:45:05:3e:e5:3f:30:12:4e:
         c7:e7:b3:91:6a:b3:56:11:f6:9b:8a:84:76:0f:6d:48:44:46:
         67:2e:00:2b:60:2b:77:f1:a5:bb:28:74:4f:5f:85:b3:b2:5f:
         59:c8:11:0e:cc:61:a7:12:a0:ba:c0:e9:f8:29:ea:d0:8e:40:
         bd:4b:b6:0c:5b:e6:0e:07:78:ed:fd:7c:b6:29:83:50:d3:57:
         1f:fc:62:9c:88:72:01:32:66:c5:24:35:ce:bc:96:37:ec:99:
         32:18:39:f4:b5:8f:63:0e:ee:38:f1:95:a0:0e:81:e4:ed:1c:
         70:e8:da:fe:b7:78:75:f2:ae:cb:a2:91:7c:c0:d4:e2:e6:d1:
         4c:ea:cd:0a:1e:20:67:c3:b5:67:15:a0:e2:d7:c8:37:29:ac:
         ff:7a:62:40:d6:df:5d:7b:dc:1f:2f:96:ee:b6:b5:e4:c4:84:
         b3:f6:06:56:4d:8b:8e:53:f5:11:c3:ba:c6:f9:0a:cf:6e:8c:
         02:bd:b1:c3:e5:e5:75:85:ff:ca:1e:1c:f6:81:d0:c5:f4:a7:
         cd:45:ba:1f:97:10:c9:de:38:f5:7b:fc:a6:e7:ed:85:b1:db:
         8a:f5:23:69:29:77:3b:75:d0:21:5b:24:ce:bd:da:1b:ea:41:
         ff:ec:7d:89:ba:0f:36:11:58:dd:06:16:75:7f:2a:1c:e8:48:
         ab:93:15:e2:43:b7:33:41:d5:c6:6b:31:72:50:0b:64:e0:43:
         90:9d:4c:17:59:de:3c:c7:08:0f:fe:e4:d4:7c:20:9a:49:ba:
         aa:c3:e6:84:e7:24:cf:40:fe:4f:2c:20:47:35:44:1d:22:d1:
         fc:03:28:d4:9c:3a:ac:c5:c9:de:7d:10:78:e9:ad:3f:98:d8:
         63:e8:1e:9e:76:bd:9f:ec:70:eb:c9:a9:26:14:8c:e0:63:b8:
         ec:a8:f0:d2:3b:68:d9:f8:40:7a:54:13:8f:77:39:8d:95:82:
         1b:50:b1:32:7e:0a:a4:0e:bf:48:ed:3a:16:83:dc:91:02:c7:
         61:69:71:35:f3:b1:e4:12:ff:01:f2:d9:db:03:96:0a:5d:58:
         fa:cc:df:1b:98:8b:e1:71:a1:83:3b:5c:79:27:33:d7:5a:d2:
         91:1a:c5:4a:0d:0c:d3:8c:c0:d4:4a:7d:f1:64:03:fd:0e:20:
         ee:7b:93:2c:5e:ae:71:26:bb:cd:ff:1b:40:01:2e:aa:34:39:
         a1:4f:58:cb:67:bd:cd:70:5f:fe:15:6e:de:c1:36:ea:08:9b:
         11:04:dd:28:b6:0c:02:9b
-----BEGIN CERTIFICATE-----
MIIFYTCCA0mgAwIBAgIBATANBgkqhkiG9w0BAQsFADCBpjELMAkGA1UEBhMCVVMx
ETAPBgNVBAgMCE1hcnlsYW5kMRIwEAYDVQQHDAlCYWx0aW1vcmUxGTAXBgNVBAoM
EFRlc3QgQ0EsIExpbWl0ZWQxIzAhBgNVBAsMGlNlcnZlciBSZXNlYXJjaCBEZXBh
cnRtZW50MQ8wDQYDVQQDDAZyYXlmZWQxHzAdBgkqhkiG9w0BCQEWEHRlc3RAZXhh
bXBsZS5jb20wHhcNMjIxMTE2MDMzMjM0WhcNMjMxMTE2MDMzMjM0WjBeMQswCQYD
VQQGEwJVUzELMAkGA1UECAwCTUQxEjAQBgNVBAcMCUJhbHRpbW9yZTEdMBsGA1UE
CgwUVGVzdCBTZXJ2ZXIsIExpbWl0ZWQxDzANBgNVBAMMBnJheWZlZDCCASIwDQYJ
KoZIhvcNAQEBBQADggEPADCCAQoCggEBAMW4e2an8O84117HdXDj1W4TsdzXrKMN
ZKZEj3Xy7PaeqFR/CcI5Y+CdIYWBnRTO8PNG6blx3XuiM+JFTby3ZauRCr1AGwxc
U46OaDzCvVDqnyAoZgC7GfFeBJIZL+a3ElmL9s8BJM5MSjrz4vv7C82TURKPti5S
4dcV99lhv92TjGUBAsUUFB1ws6Fxg2lUzq3dukdBduy3Qc0iCmN0z6y3QbQKHh9U
yumBrRGgLXu1RjyRYGCrZ5Z8TOEDj051g5GNK6WlFgpP7mldPy+xgXaBGy3zTxgu
xBQzzm9zHyL90dHihgQ8xJGND+8QjhjE1e4mB4ZJ27U3xn+mRySNcUECAwEAAaOB
4DCB3TAdBgNVHQ4EFgQUDzhlT7HwvBYBYxBDvlZ5+VOYSTYwHwYDVR0jBBgwFoAU
pRyFfha4NrXpGM2DuhPGjgoS9X4wCQYDVR0TBAIwADALBgNVHQ8EBAMCBaAwVQYD
VR0RBE4wTIIJMTI3LjAuMC4xgglsb2NhbGhvc3SCCzMwLjQ3LjE5Ljk3gg9mdHAu
ZXhhbXBsZS5jb22HBH8AAAGHEAAAAAAAAAAAAAAAAAAAAAEwLAYJYIZIAYb4QgEN
BB8WHU9wZW5TU0wgR2VuZXJhdGVkIENlcnRpZmljYXRlMA0GCSqGSIb3DQEBCwUA
A4ICAQAqRYWlvVgB1yvHUH2Vvae8y/8UrKfw/EzVJmmZRQU+5T8wEk7H57ORarNW
EfabioR2D21IREZnLgArYCt38aW7KHRPX4Wzsl9ZyBEOzGGnEqC6wOn4KerQjkC9
S7YMW+YOB3jt/Xy2KYNQ01cf/GKciHIBMmbFJDXOvJY37JkyGDn0tY9jDu448ZWg
DoHk7Rxw6Nr+t3h18q7LopF8wNTi5tFM6s0KHiBnw7VnFaDi18g3Kaz/emJA1t9d
e9wfL5butrXkxISz9gZWTYuOU/URw7rG+QrPbowCvbHD5eV1hf/KHhz2gdDF9KfN
RboflxDJ3jj1e/ym5+2FsduK9SNpKXc7ddAhWyTOvdob6kH/7H2Jug82EVjdBhZ1
fyoc6EirkxXiQ7czQdXGazFyUAtk4EOQnUwXWd48xwgP/uTUfCCaSbqqw+aE5yTP
QP5PLCBHNUQdItH8AyjUnDqsxcnefRB46a0/mNhj6B6edr2f7HDryakmFIzgY7js
qPDSO2jZ+EB6VBOPdzmNlYIbULEyfgqkDr9I7ToWg9yRAsdhaXE187HkEv8B8tnb
A5YKXVj6zN8bmIvhcaGDO1x5JzPXWtKRGsVKDQzTjMDUSn3xZAP9DiDue5MsXq5x
JrvN/xtAAS6qNDmhT1jLZ73NcF/+FW7ewTbqCJsRBN0otgwCmw==
-----END CERTIFICATE-----
