Certificate:
    Data:
        Version: 3 (0x2)
        Serial Number: 1 (0x1)
    Signature Algorithm: sha256WithRSAEncryption
        Issuer: C=US, ST=Maryland, L=Baltimore, O=Test CA, Limited, OU=Server Research Department, CN=Test CA/emailAddress=test@example.com
        Validity
            Not Before: Dec 25 12:05:32 2022 GMT
            Not After : Dec 25 12:05:32 2023 GMT
        Subject: C=US, ST=MD, L=Baltimore, O=Test Server, Limited, CN=Test Server
        Subject Public Key Info:
            Public Key Algorithm: rsaEncryption
                Public-Key: (2048 bit)
                Modulus:
                    00:a1:b7:db:b5:c5:25:e6:43:59:07:8b:6b:00:0d:
                    62:27:84:5e:2b:91:3e:b4:3c:ba:26:c4:b2:86:3b:
                    7a:fd:26:e4:27:e2:c6:db:18:09:f1:b9:94:dc:e8:
                    85:4f:bb:07:3f:5e:f6:a4:ea:07:99:3f:2a:20:d3:
                    63:0a:ca:46:da:65:b8:de:fc:30:20:17:ea:e5:83:
                    42:69:f6:d8:91:a2:86:d1:b0:4c:57:36:3a:69:1f:
                    22:b8:ae:46:89:58:0b:93:97:a3:87:bb:4c:68:1f:
                    d3:89:82:80:86:ec:0b:1e:87:1e:18:9a:20:9c:12:
                    90:00:2c:89:64:fb:b0:ef:d2:e2:db:3b:f1:7f:b5:
                    72:2f:12:c5:12:89:9f:dc:ad:6e:5e:0b:8e:0f:1b:
                    78:9c:69:2f:a8:c1:b2:a0:27:e7:51:41:00:34:f1:
                    5f:fb:ec:2d:e7:06:38:5e:4e:a2:6e:c9:3a:2b:0c:
                    a0:d8:74:79:b6:ff:f5:80:67:a8:d5:30:ba:5e:19:
                    69:da:e2:ee:ff:8b:4f:78:a3:5b:d2:b3:e4:62:b5:
                    c9:e1:77:e0:b0:fc:02:ca:0f:a4:6a:39:5c:a9:dd:
                    63:7b:f5:ab:c7:16:f9:d4:94:c4:f8:79:5d:c4:b3:
                    d1:e7:1c:a5:92:b4:85:5b:39:74:2b:46:ce:52:85:
                    2a:39
                Exponent: 65537 (0x10001)
        X509v3 extensions:
            X509v3 Subject Key Identifier: 
                A6:E4:7B:55:1A:6B:AD:06:66:17:B2:40:0A:01:50:9C:61:BA:7A:73
            X509v3 Authority Key Identifier: 
                keyid:EB:3F:9A:14:AE:7B:DA:8A:09:11:4E:B3:EB:8B:AA:DF:AB:24:E4:E5

            X509v3 Basic Constraints: 
                CA:FALSE
            X509v3 Key Usage: 
                Digital Signature, Key Encipherment
            X509v3 Subject Alternative Name: 
                DNS:127.0.0.1, DNS:localhost, DNS:mail.example.com, DNS:ftp.example.com
            Netscape Comment: 
                OpenSSL Generated Certificate
    Signature Algorithm: sha256WithRSAEncryption
         7a:a3:82:d0:ce:15:0f:9f:88:58:1f:95:cd:fd:fb:33:5e:4f:
         b6:27:bf:5c:05:2f:9c:0b:8c:e9:11:06:2d:47:38:b1:74:79:
         74:65:24:19:95:73:25:a3:77:c1:f5:ec:6c:25:28:25:ab:18:
         30:01:f6:b9:2f:35:a4:17:58:22:8d:f7:3f:db:7b:07:34:9a:
         23:6c:0a:4b:8e:ff:84:3a:f3:29:04:33:c2:41:8e:c3:12:1c:
         c2:62:71:6c:09:03:c3:00:50:73:d1:df:0d:83:17:2b:72:17:
         a5:43:a0:09:a2:71:75:7d:0d:5a:62:83:c5:02:a6:01:c9:4a:
         76:3b:eb:73:86:b6:7f:03:4f:63:75:dc:b4:83:42:91:07:df:
         77:73:99:59:e2:13:5a:88:9e:1f:62:03:3a:51:8d:ff:7b:47:
         39:d6:f5:de:df:76:7e:70:89:59:0f:01:1d:b7:1d:3c:cb:b5:
         a7:46:d4:e4:80:e0:28:28:f3:0e:91:57:5c:a3:c4:34:46:ef:
         a1:07:63:17:3d:7e:af:ef:16:b3:2f:7b:32:6e:35:ee:a5:17:
         fe:a7:01:6e:26:1b:7f:17:3c:91:82:cc:74:b9:43:0a:ba:c5:
         02:6b:79:5e:25:56:f1:6d:49:de:1b:1e:4d:45:47:01:2a:f1:
         21:b1:61:79:b3:ae:8a:73:5d:2d:ce:b9:2e:4f:5d:96:9b:6c:
         b0:9e:80:fe:f3:fd:5d:e4:c3:7a:03:22:66:75:6e:25:e5:3c:
         74:bd:99:f4:9a:53:d2:2f:2b:7c:5c:ed:47:3b:a4:80:8c:d1:
         6e:15:1a:6a:59:a5:e4:8f:a9:19:47:5f:7b:6e:22:44:f5:d8:
         39:ca:32:c2:d5:a1:ce:0a:3c:7d:6c:c4:6b:bf:5c:ad:a3:98:
         12:59:b2:9a:09:31:fa:5b:44:e0:13:f8:e2:0a:08:40:96:94:
         37:97:e3:cb:10:7f:05:59:86:a8:9a:6c:fe:15:ce:53:f5:d0:
         56:2e:84:5a:b2:ba:9d:4e:cd:2c:b5:47:ee:f7:48:12:ab:81:
         32:e1:f1:69:51:29:ae:df:7f:63:6d:60:a5:05:a2:6f:ea:48:
         bc:dd:79:42:09:0d:3b:91:7b:3d:28:83:60:3e:b2:fd:9b:2e:
         7b:45:ad:09:72:37:19:97:91:be:c0:59:6c:f5:19:fd:2a:a8:
         ba:d4:70:c6:b3:db:ed:8b:bd:47:f6:18:a0:58:51:4e:bf:d1:
         59:29:1d:11:2c:28:10:fb:4a:7c:0a:45:b7:d8:46:08:02:05:
         14:81:34:5c:89:ac:3e:d8:73:dc:8b:79:4f:31:0b:6a:68:5b:
         fe:10:5b:10:bf:e9:e4:ea
-----BEGIN CERTIFICATE-----
MIIFVDCCAzygAwIBAgIBATANBgkqhkiG9w0BAQsFADCBpzELMAkGA1UEBhMCVVMx
ETAPBgNVBAgMCE1hcnlsYW5kMRIwEAYDVQQHDAlCYWx0aW1vcmUxGTAXBgNVBAoM
EFRlc3QgQ0EsIExpbWl0ZWQxIzAhBgNVBAsMGlNlcnZlciBSZXNlYXJjaCBEZXBh
cnRtZW50MRAwDgYDVQQDDAdUZXN0IENBMR8wHQYJKoZIhvcNAQkBFhB0ZXN0QGV4
YW1wbGUuY29tMB4XDTIyMTIyNTEyMDUzMloXDTIzMTIyNTEyMDUzMlowYzELMAkG
A1UEBhMCVVMxCzAJBgNVBAgMAk1EMRIwEAYDVQQHDAlCYWx0aW1vcmUxHTAbBgNV
BAoMFFRlc3QgU2VydmVyLCBMaW1pdGVkMRQwEgYDVQQDDAtUZXN0IFNlcnZlcjCC
ASIwDQYJKoZIhvcNAQEBBQADggEPADCCAQoCggEBAKG327XFJeZDWQeLawANYieE
XiuRPrQ8uibEsoY7ev0m5CfixtsYCfG5lNzohU+7Bz9e9qTqB5k/KiDTYwrKRtpl
uN78MCAX6uWDQmn22JGihtGwTFc2OmkfIriuRolYC5OXo4e7TGgf04mCgIbsCx6H
HhiaIJwSkAAsiWT7sO/S4ts78X+1ci8SxRKJn9ytbl4Ljg8beJxpL6jBsqAn51FB
ADTxX/vsLecGOF5Oom7JOisMoNh0ebb/9YBnqNUwul4Zadri7v+LT3ijW9Kz5GK1
yeF34LD8AsoPpGo5XKndY3v1q8cW+dSUxPh5XcSz0eccpZK0hVs5dCtGzlKFKjkC
AwEAAaOBzTCByjAdBgNVHQ4EFgQUpuR7VRprrQZmF7JACgFQnGG6enMwHwYDVR0j
BBgwFoAU6z+aFK572ooJEU6z64uq36sk5OUwCQYDVR0TBAIwADALBgNVHQ8EBAMC
BaAwQgYDVR0RBDswOYIJMTI3LjAuMC4xgglsb2NhbGhvc3SCEG1haWwuZXhhbXBs
ZS5jb22CD2Z0cC5leGFtcGxlLmNvbTAsBglghkgBhvhCAQ0EHxYdT3BlblNTTCBH
ZW5lcmF0ZWQgQ2VydGlmaWNhdGUwDQYJKoZIhvcNAQELBQADggIBAHqjgtDOFQ+f
iFgflc39+zNeT7Ynv1wFL5wLjOkRBi1HOLF0eXRlJBmVcyWjd8H17GwlKCWrGDAB
9rkvNaQXWCKN9z/bewc0miNsCkuO/4Q68ykEM8JBjsMSHMJicWwJA8MAUHPR3w2D
FytyF6VDoAmicXV9DVpig8UCpgHJSnY763OGtn8DT2N13LSDQpEH33dzmVniE1qI
nh9iAzpRjf97RznW9d7fdn5wiVkPAR23HTzLtadG1OSA4Cgo8w6RV1yjxDRG76EH
Yxc9fq/vFrMvezJuNe6lF/6nAW4mG38XPJGCzHS5Qwq6xQJreV4lVvFtSd4bHk1F
RwEq8SGxYXmzropzXS3OuS5PXZabbLCegP7z/V3kw3oDImZ1biXlPHS9mfSaU9Iv
K3xc7Uc7pICM0W4VGmpZpeSPqRlHX3tuIkT12DnKMsLVoc4KPH1sxGu/XK2jmBJZ
spoJMfpbROAT+OIKCECWlDeX48sQfwVZhqiabP4VzlP10FYuhFqyup1OzSy1R+73
SBKrgTLh8WlRKa7ff2NtYKUFom/qSLzdeUIJDTuRez0og2A+sv2bLntFrQlyNxmX
kb7AWWz1Gf0qqLrUcMaz2+2LvUf2GKBYUU6/0VkpHREsKBD7SnwKRbfYRggCBRSB
NFyJrD7Yc9yLeU8xC2poW/4QWxC/6eTq
-----END CERTIFICATE-----
